target datalayout = "e-m:e-p270:32:32-p271:32:32-p272:64:64-i64:64-i128:128-f80:128-n8:16:32:64-S128"
target triple = "x86_64-pc-linux-gnu"

%struct.tmpi_datatype_ = type { i64, ptr, i32, ptr, i32 }
%struct.tmpi_datatype_component = type { ptr, i32 }
%struct.tmpi_global = type { ptr, i32, i32, %struct.tMPI_Spinlock, %struct.tMPI_Thread_mutex_t, %struct.tMPI_Thread_barrier_t, %struct.tMPI_Thread_mutex_t, %struct.timeval }
%struct.tMPI_Spinlock = type { i32, [60 x i8] }
%struct.tMPI_Thread_barrier_t = type { %struct.tMPI_Atomic, ptr, i32, i32, i32 }
%struct.tMPI_Atomic = type { i32, [60 x i8] }
%struct.tMPI_Thread_mutex_t = type { %struct.tMPI_Atomic, ptr }
%struct.timeval = type { i64, i64 }

@tmpi_global = external global ptr, align 8

; Function Attrs: inlinehint mustprogress nounwind uwtable
define internal void @_ZL20tMPI_Spinlock_unlockP13tMPI_Spinlock(ptr noundef %0) #4 {
  %2 = alloca ptr, align 8
  store ptr %0, ptr %2, align 8, !tbaa !194
  %3 = load ptr, ptr %2, align 8, !tbaa !194
  %4 = getelementptr inbounds nuw %struct.tMPI_Spinlock, ptr %3, i32 0, i32 0
  call void asm sideeffect "\0A\09movl $$0, $0\0A", "=*m,~{memory},~{dirflag},~{fpsr},~{flags}"(ptr elementtype(i32) %4) #6, !srcloc !197
  ret void
}

; Function Attrs: inlinehint mustprogress nounwind uwtable
define internal void @_ZL18tMPI_Spinlock_lockP13tMPI_Spinlock(ptr noundef %0) #4 {
  %2 = alloca ptr, align 8
  store ptr %0, ptr %2, align 8, !tbaa !194
  %3 = load ptr, ptr %2, align 8, !tbaa !194
  %4 = getelementptr inbounds nuw %struct.tMPI_Spinlock, ptr %3, i32 0, i32 0
  call void asm sideeffect "1:\09cmpl $$0, $0\0A\09je 2f\0A\09pause\0A\09jmp 1b\0A2:\09movl $$1, %eax\0A\09xchgl %eax, $0\0A\09cmpl $$0, %eax\0A\09jne 1b", "=*m,*m,~{eax},~{memory},~{dirflag},~{fpsr},~{flags}"(ptr elementtype(i32) %4, ptr elementtype(i32) %4) #6, !srcloc !196
  ret void
}

; Function Attrs: mustprogress uwtable
define noundef i32 @_Z16tMPI_Type_commitPP14tmpi_datatype_(ptr noundef %0) #1 {
  %2 = alloca i32, align 4
  %3 = alloca ptr, align 8
  %4 = alloca i32, align 4
  %5 = alloca i32, align 4
  %6 = alloca ptr, align 8
  %7 = alloca i32, align 4
  %8 = alloca ptr, align 8
  %9 = alloca i32, align 4
  %10 = alloca i32, align 4
  store ptr %0, ptr %3, align 8, !tbaa !168
  call void @llvm.lifetime.start.p0(i64 4, ptr %4) #6
  call void @llvm.lifetime.start.p0(i64 4, ptr %5) #6
  call void @llvm.lifetime.start.p0(i64 8, ptr %6) #6
  %11 = load ptr, ptr %3, align 8, !tbaa !168
  %12 = load ptr, ptr %11, align 8, !tbaa !166
  store ptr %12, ptr %6, align 8, !tbaa !166
  %13 = load ptr, ptr %6, align 8, !tbaa !166
  %14 = getelementptr inbounds nuw %struct.tmpi_datatype_, ptr %13, i32 0, i32 4
  %15 = load i32, ptr %14, align 8, !tbaa !180
  %16 = icmp ne i32 %15, 0
  br i1 %16, label %17, label %18

17:                                               ; preds = %1
  store i32 0, ptr %2, align 4
  store i32 1, ptr %7, align 4
  br label %172

18:                                               ; preds = %1
  %19 = load ptr, ptr @tmpi_global, align 8, !tbaa !181
  %20 = getelementptr inbounds nuw %struct.tmpi_global, ptr %19, i32 0, i32 3
  call void @_ZL18tMPI_Spinlock_lockP13tMPI_Spinlock(ptr noundef %20)
  store i32 0, ptr %4, align 4, !tbaa !7
  br label %21

21:                                               ; preds = %102, %18
  %22 = load i32, ptr %4, align 4, !tbaa !7
  %23 = load ptr, ptr @tmpi_global, align 8, !tbaa !181
  %24 = getelementptr inbounds nuw %struct.tmpi_global, ptr %23, i32 0, i32 1
  %25 = load i32, ptr %24, align 8, !tbaa !183
  %26 = icmp slt i32 %22, %25
  br i1 %26, label %27, label %105

27:                                               ; preds = %21
  call void @llvm.lifetime.start.p0(i64 8, ptr %8) #6
  %28 = load ptr, ptr @tmpi_global, align 8, !tbaa !181
  %29 = getelementptr inbounds nuw %struct.tmpi_global, ptr %28, i32 0, i32 0
  %30 = load ptr, ptr %29, align 8, !tbaa !193
  %31 = load i32, ptr %4, align 4, !tbaa !7
  %32 = sext i32 %31 to i64
  %33 = getelementptr inbounds ptr, ptr %30, i64 %32
  %34 = load ptr, ptr %33, align 8, !tbaa !166
  store ptr %34, ptr %8, align 8, !tbaa !166
  %35 = load ptr, ptr %8, align 8, !tbaa !166
  %36 = getelementptr inbounds nuw %struct.tmpi_datatype_, ptr %35, i32 0, i32 4
  %37 = load i32, ptr %36, align 8, !tbaa !180
  %38 = icmp ne i32 %37, 0
  br i1 %38, label %39, label %101

39:                                               ; preds = %27
  %40 = load ptr, ptr %8, align 8, !tbaa !166
  %41 = getelementptr inbounds nuw %struct.tmpi_datatype_, ptr %40, i32 0, i32 2
  %42 = load i32, ptr %41, align 8, !tbaa !175
  %43 = load ptr, ptr %6, align 8, !tbaa !166
  %44 = getelementptr inbounds nuw %struct.tmpi_datatype_, ptr %43, i32 0, i32 2
  %45 = load i32, ptr %44, align 8, !tbaa !175
  %46 = icmp eq i32 %42, %45
  br i1 %46, label %47, label %101

47:                                               ; preds = %39
  call void @llvm.lifetime.start.p0(i64 4, ptr %9) #6
  store i32 1, ptr %9, align 4, !tbaa !7
  store i32 0, ptr %5, align 4, !tbaa !7
  br label %48

48:                                               ; preds = %92, %47
  %49 = load i32, ptr %5, align 4, !tbaa !7
  %50 = load ptr, ptr %8, align 8, !tbaa !166
  %51 = getelementptr inbounds nuw %struct.tmpi_datatype_, ptr %50, i32 0, i32 2
  %52 = load i32, ptr %51, align 8, !tbaa !175
  %53 = icmp slt i32 %49, %52
  br i1 %53, label %54, label %95

54:                                               ; preds = %48
  %55 = load ptr, ptr %8, align 8, !tbaa !166
  %56 = getelementptr inbounds nuw %struct.tmpi_datatype_, ptr %55, i32 0, i32 3
  %57 = load ptr, ptr %56, align 8, !tbaa !176
  %58 = load i32, ptr %5, align 4, !tbaa !7
  %59 = sext i32 %58 to i64
  %60 = getelementptr inbounds %struct.tmpi_datatype_component, ptr %57, i64 %59
  %61 = getelementptr inbounds nuw %struct.tmpi_datatype_component, ptr %60, i32 0, i32 0
  %62 = load ptr, ptr %61, align 8, !tbaa !177
  %63 = load ptr, ptr %6, align 8, !tbaa !166
  %64 = getelementptr inbounds nuw %struct.tmpi_datatype_, ptr %63, i32 0, i32 3
  %65 = load ptr, ptr %64, align 8, !tbaa !176
  %66 = load i32, ptr %5, align 4, !tbaa !7
  %67 = sext i32 %66 to i64
  %68 = getelementptr inbounds %struct.tmpi_datatype_component, ptr %65, i64 %67
  %69 = getelementptr inbounds nuw %struct.tmpi_datatype_component, ptr %68, i32 0, i32 0
  %70 = load ptr, ptr %69, align 8, !tbaa !177
  %71 = icmp ne ptr %62, %70
  br i1 %71, label %90, label %72

72:                                               ; preds = %54
  %73 = load ptr, ptr %8, align 8, !tbaa !166
  %74 = getelementptr inbounds nuw %struct.tmpi_datatype_, ptr %73, i32 0, i32 3
  %75 = load ptr, ptr %74, align 8, !tbaa !176
  %76 = load i32, ptr %5, align 4, !tbaa !7
  %77 = sext i32 %76 to i64
  %78 = getelementptr inbounds %struct.tmpi_datatype_component, ptr %75, i64 %77
  %79 = getelementptr inbounds nuw %struct.tmpi_datatype_component, ptr %78, i32 0, i32 1
  %80 = load i32, ptr %79, align 8, !tbaa !179
  %81 = load ptr, ptr %6, align 8, !tbaa !166
  %82 = getelementptr inbounds nuw %struct.tmpi_datatype_, ptr %81, i32 0, i32 3
  %83 = load ptr, ptr %82, align 8, !tbaa !176
  %84 = load i32, ptr %5, align 4, !tbaa !7
  %85 = sext i32 %84 to i64
  %86 = getelementptr inbounds %struct.tmpi_datatype_component, ptr %83, i64 %85
  %87 = getelementptr inbounds nuw %struct.tmpi_datatype_component, ptr %86, i32 0, i32 1
  %88 = load i32, ptr %87, align 8, !tbaa !179
  %89 = icmp ne i32 %80, %88
  br i1 %89, label %90, label %91

90:                                               ; preds = %72, %54
  store i32 0, ptr %9, align 4, !tbaa !7
  br label %95

91:                                               ; preds = %72
  br label %92

92:                                               ; preds = %91
  %93 = load i32, ptr %5, align 4, !tbaa !7
  %94 = add nsw i32 %93, 1
  store i32 %94, ptr %5, align 4, !tbaa !7
  br label %48, !llvm.loop !198

95:                                               ; preds = %90, %48
  %96 = load i32, ptr %9, align 4, !tbaa !7
  %97 = icmp ne i32 %96, 0
  br i1 %97, label %98, label %100

98:                                               ; preds = %95
  %99 = load ptr, ptr %8, align 8, !tbaa !166
  store ptr %99, ptr %6, align 8, !tbaa !166
  br label %100

100:                                              ; preds = %98, %95
  call void @llvm.lifetime.end.p0(i64 4, ptr %9) #6
  br label %101

101:                                              ; preds = %100, %39, %27
  call void @llvm.lifetime.end.p0(i64 8, ptr %8) #6
  br label %102

102:                                              ; preds = %101
  %103 = load i32, ptr %4, align 4, !tbaa !7
  %104 = add nsw i32 %103, 1
  store i32 %104, ptr %4, align 4, !tbaa !7
  br label %21, !llvm.loop !199

105:                                              ; preds = %21
  %106 = load ptr, ptr %6, align 8, !tbaa !166
  %107 = load ptr, ptr %3, align 8, !tbaa !168
  %108 = load ptr, ptr %107, align 8, !tbaa !166
  %109 = icmp ne ptr %106, %108
  br i1 %109, label %110, label %166

110:                                              ; preds = %105
  call void @llvm.lifetime.start.p0(i64 4, ptr %10) #6
  store i32 0, ptr %10, align 4, !tbaa !7
  store i32 0, ptr %4, align 4, !tbaa !7
  br label %111

111:                                              ; preds = %130, %110
  %112 = load i32, ptr %4, align 4, !tbaa !7
  %113 = load ptr, ptr @tmpi_global, align 8, !tbaa !181
  %114 = getelementptr inbounds nuw %struct.tmpi_global, ptr %113, i32 0, i32 1
  %115 = load i32, ptr %114, align 8, !tbaa !183
  %116 = icmp slt i32 %112, %115
  br i1 %116, label %117, label %133

117:                                              ; preds = %111
  %118 = load ptr, ptr @tmpi_global, align 8, !tbaa !181
  %119 = getelementptr inbounds nuw %struct.tmpi_global, ptr %118, i32 0, i32 0
  %120 = load ptr, ptr %119, align 8, !tbaa !193
  %121 = load i32, ptr %4, align 4, !tbaa !7
  %122 = sext i32 %121 to i64
  %123 = getelementptr inbounds ptr, ptr %120, i64 %122
  %124 = load ptr, ptr %123, align 8, !tbaa !166
  %125 = load ptr, ptr %3, align 8, !tbaa !168
  %126 = load ptr, ptr %125, align 8, !tbaa !166
  %127 = icmp eq ptr %124, %126
  br i1 %127, label %128, label %129

128:                                              ; preds = %117
  store i32 1, ptr %10, align 4, !tbaa !7
  br label %133

129:                                              ; preds = %117
  br label %130

130:                                              ; preds = %129
  %131 = load i32, ptr %4, align 4, !tbaa !7
  %132 = add nsw i32 %131, 1
  store i32 %132, ptr %4, align 4, !tbaa !7
  br label %111, !llvm.loop !200

133:                                              ; preds = %128, %111
  %134 = load i32, ptr %10, align 4, !tbaa !7
  %135 = icmp ne i32 %134, 0
  br i1 %135, label %136, label %157

136:                                              ; preds = %133
  %137 = load ptr, ptr @tmpi_global, align 8, !tbaa !181
  %138 = getelementptr inbounds nuw %struct.tmpi_global, ptr %137, i32 0, i32 0
  %139 = load ptr, ptr %138, align 8, !tbaa !193
  %140 = load ptr, ptr @tmpi_global, align 8, !tbaa !181
  %141 = getelementptr inbounds nuw %struct.tmpi_global, ptr %140, i32 0, i32 1
  %142 = load i32, ptr %141, align 8, !tbaa !183
  %143 = sub nsw i32 %142, 1
  %144 = sext i32 %143 to i64
  %145 = getelementptr inbounds ptr, ptr %139, i64 %144
  %146 = load ptr, ptr %145, align 8, !tbaa !166
  %147 = load ptr, ptr @tmpi_global, align 8, !tbaa !181
  %148 = getelementptr inbounds nuw %struct.tmpi_global, ptr %147, i32 0, i32 0
  %149 = load ptr, ptr %148, align 8, !tbaa !193
  %150 = load i32, ptr %4, align 4, !tbaa !7
  %151 = sext i32 %150 to i64
  %152 = getelementptr inbounds ptr, ptr %149, i64 %151
  store ptr %146, ptr %152, align 8, !tbaa !166
  %153 = load ptr, ptr @tmpi_global, align 8, !tbaa !181
  %154 = getelementptr inbounds nuw %struct.tmpi_global, ptr %153, i32 0, i32 1
  %155 = load i32, ptr %154, align 8, !tbaa !183
  %156 = add nsw i32 %155, -1
  store i32 %156, ptr %154, align 8, !tbaa !183
  br label %157

157:                                              ; preds = %136, %133
  %158 = load ptr, ptr %3, align 8, !tbaa !168
  %159 = load ptr, ptr %158, align 8, !tbaa !166
  %160 = getelementptr inbounds nuw %struct.tmpi_datatype_, ptr %159, i32 0, i32 3
  %161 = load ptr, ptr %160, align 8, !tbaa !176
  call void @free(ptr noundef %161) #6
  %162 = load ptr, ptr %3, align 8, !tbaa !168
  %163 = load ptr, ptr %162, align 8, !tbaa !166
  call void @free(ptr noundef %163) #6
  %164 = load ptr, ptr %6, align 8, !tbaa !166
  %165 = load ptr, ptr %3, align 8, !tbaa !168
  store ptr %164, ptr %165, align 8, !tbaa !166
  call void @llvm.lifetime.end.p0(i64 4, ptr %10) #6
  br label %169

166:                                              ; preds = %105
  %167 = load ptr, ptr %6, align 8, !tbaa !166
  %168 = getelementptr inbounds nuw %struct.tmpi_datatype_, ptr %167, i32 0, i32 4
  store i32 1, ptr %168, align 8, !tbaa !180
  br label %169

169:                                              ; preds = %166, %157
  %170 = load ptr, ptr @tmpi_global, align 8, !tbaa !181
  %171 = getelementptr inbounds nuw %struct.tmpi_global, ptr %170, i32 0, i32 3
  call void @_ZL20tMPI_Spinlock_unlockP13tMPI_Spinlock(ptr noundef %171)
  store i32 0, ptr %2, align 4
  store i32 1, ptr %7, align 4
  br label %172

172:                                              ; preds = %169, %17
  call void @llvm.lifetime.end.p0(i64 8, ptr %6) #6
  call void @llvm.lifetime.end.p0(i64 4, ptr %5) #6
  call void @llvm.lifetime.end.p0(i64 4, ptr %4) #6
  %173 = load i32, ptr %2, align 4
  ret i32 %173
}