; Function Attrs: mustprogress uwtable
define noundef i32 @_Z16tMPI_Type_commitPP14tmpi_datatype_(ptr noundef captures(none) %0) local_unnamed_addr #1 {
  %2 = load ptr, ptr %0, align 8, !tbaa !176
  %3 = getelementptr inbounds nuw i8, ptr %2, i64 32
  %4 = load i32, ptr %3, align 8, !tbaa !160
  %.not = icmp eq i32 %4, 0
  br i1 %.not, label %5, label %63

5:                                                ; preds = %1
  %6 = load ptr, ptr @tmpi_global, align 8, !tbaa !161
  %7 = getelementptr inbounds nuw i8, ptr %6, i64 16
  tail call void asm sideeffect "1:\09cmpl $$0, $0\0A\09je 2f\0A\09pause\0A\09jmp 1b\0A2:\09movl $$1, %eax\0A\09xchgl %eax, $0\0A\09cmpl $$0, %eax\0A\09jne 1b", "=*m,*m,~{eax},~{memory},~{dirflag},~{fpsr},~{flags}"(ptr nonnull elementtype(i32) %7, ptr nonnull elementtype(i32) %7) #5, !srcloc !163
  %8 = load ptr, ptr @tmpi_global, align 8, !tbaa !161
  %9 = getelementptr inbounds nuw i8, ptr %8, i64 8
  %10 = load i32, ptr %9, align 8, !tbaa !164
  %11 = icmp sgt i32 %10, 0
  br i1 %11, label %.lr.ph60, label %._crit_edge.thread

.lr.ph60:                                         ; preds = %5
  %12 = load ptr, ptr %8, align 8, !tbaa !175
  %wide.trip.count74 = zext nneg i32 %10 to i64
  br label %13

13:                                               ; preds = %.lr.ph60, %.loopexit
  %indvars.iv71 = phi i64 [ 0, %.lr.ph60 ], [ %indvars.iv.next72, %.loopexit ]
  %.03659 = phi ptr [ %2, %.lr.ph60 ], [ %.1, %.loopexit ]
  %14 = getelementptr inbounds nuw ptr, ptr %12, i64 %indvars.iv71
  %15 = load ptr, ptr %14, align 8, !tbaa !176
  %16 = getelementptr inbounds nuw i8, ptr %15, i64 32
  %17 = load i32, ptr %16, align 8, !tbaa !160
  %.not43 = icmp eq i32 %17, 0
  br i1 %.not43, label %.loopexit, label %18

18:                                               ; preds = %13
  %19 = getelementptr inbounds nuw i8, ptr %15, i64 16
  %20 = load i32, ptr %19, align 8, !tbaa !154
  %21 = getelementptr inbounds nuw i8, ptr %.03659, i64 16
  %22 = load i32, ptr %21, align 8, !tbaa !154
  %23 = icmp eq i32 %20, %22
  br i1 %23, label %.preheader47, label %.loopexit

.preheader47:                                     ; preds = %18
  %24 = icmp sgt i32 %20, 0
  br i1 %24, label %.lr.ph, label %.loopexit

.lr.ph:                                           ; preds = %.preheader47
  %25 = getelementptr inbounds nuw i8, ptr %15, i64 24
  %26 = load ptr, ptr %25, align 8, !tbaa !155
  %27 = getelementptr inbounds nuw i8, ptr %.03659, i64 24
  %28 = load ptr, ptr %27, align 8, !tbaa !155
  %wide.trip.count = zext nneg i32 %20 to i64
  br label %30

29:                                               ; preds = %35
  %indvars.iv.next = add nuw nsw i64 %indvars.iv, 1
  %exitcond.not = icmp eq i64 %indvars.iv.next, %wide.trip.count
  br i1 %exitcond.not, label %.loopexit, label %30, !llvm.loop !178

30:                                               ; preds = %.lr.ph, %29
  %indvars.iv = phi i64 [ 0, %.lr.ph ], [ %indvars.iv.next, %29 ]
  %31 = getelementptr inbounds nuw %struct.tmpi_datatype_component, ptr %26, i64 %indvars.iv
  %32 = load ptr, ptr %31, align 8, !tbaa !156
  %33 = getelementptr inbounds nuw %struct.tmpi_datatype_component, ptr %28, i64 %indvars.iv
  %34 = load ptr, ptr %33, align 8, !tbaa !156
  %.not44 = icmp eq ptr %32, %34
  br i1 %.not44, label %35, label %.loopexit

35:                                               ; preds = %30
  %36 = getelementptr inbounds nuw i8, ptr %31, i64 8
  %37 = load i32, ptr %36, align 8, !tbaa !159
  %38 = getelementptr inbounds nuw i8, ptr %33, i64 8
  %39 = load i32, ptr %38, align 8, !tbaa !159
  %.not45 = icmp eq i32 %37, %39
  br i1 %.not45, label %29, label %.loopexit

.loopexit:                                        ; preds = %30, %35, %29, %.preheader47, %18, %13
  %.1 = phi ptr [ %.03659, %18 ], [ %.03659, %13 ], [ %15, %.preheader47 ], [ %.03659, %30 ], [ %.03659, %35 ], [ %15, %29 ]
  %indvars.iv.next72 = add nuw nsw i64 %indvars.iv71, 1
  %exitcond75.not = icmp eq i64 %indvars.iv.next72, %wide.trip.count74
  br i1 %exitcond75.not, label %._crit_edge, label %13, !llvm.loop !179

._crit_edge:                                      ; preds = %.loopexit
  %40 = load ptr, ptr %0, align 8, !tbaa !176
  %.not40 = icmp eq ptr %.1, %40
  br i1 %.not40, label %58, label %.lr.ph68

._crit_edge.thread:                               ; preds = %5
  %41 = load ptr, ptr %0, align 8, !tbaa !176
  %.not4083 = icmp eq ptr %2, %41
  br i1 %.not4083, label %58, label %.critedge

.lr.ph68:                                         ; preds = %._crit_edge
  %42 = load ptr, ptr %8, align 8, !tbaa !175
  %wide.trip.count79 = zext nneg i32 %10 to i64
  br label %44

43:                                               ; preds = %44
  %indvars.iv.next77 = add nuw nsw i64 %indvars.iv76, 1
  %exitcond80.not = icmp eq i64 %indvars.iv.next77, %wide.trip.count79
  br i1 %exitcond80.not, label %.critedge, label %44, !llvm.loop !180

44:                                               ; preds = %.lr.ph68, %43
  %indvars.iv76 = phi i64 [ 0, %.lr.ph68 ], [ %indvars.iv.next77, %43 ]
  %45 = getelementptr inbounds nuw ptr, ptr %42, i64 %indvars.iv76
  %46 = load ptr, ptr %45, align 8, !tbaa !176
  %47 = icmp eq ptr %46, %40
  br i1 %47, label %48, label %43

48:                                               ; preds = %44
  %49 = getelementptr inbounds nuw ptr, ptr %42, i64 %indvars.iv76
  %50 = getelementptr ptr, ptr %42, i64 %wide.trip.count79
  %51 = getelementptr i8, ptr %50, i64 -8
  %52 = load ptr, ptr %51, align 8, !tbaa !176
  store ptr %52, ptr %49, align 8, !tbaa !176
  %53 = add nsw i32 %10, -1
  store i32 %53, ptr %9, align 8, !tbaa !164
  %.pre = load ptr, ptr %0, align 8, !tbaa !176
  br label %.critedge

.critedge:                                        ; preds = %43, %._crit_edge.thread, %48
  %.036.lcssa8587 = phi ptr [ %.1, %48 ], [ %2, %._crit_edge.thread ], [ %.1, %43 ]
  %54 = phi ptr [ %.pre, %48 ], [ %41, %._crit_edge.thread ], [ %40, %43 ]
  %55 = getelementptr inbounds nuw i8, ptr %54, i64 24
  %56 = load ptr, ptr %55, align 8, !tbaa !155
  tail call void @free(ptr noundef %56) #5
  %57 = load ptr, ptr %0, align 8, !tbaa !176
  tail call void @free(ptr noundef %57) #5
  store ptr %.036.lcssa8587, ptr %0, align 8, !tbaa !176
  %.pre81 = load ptr, ptr @tmpi_global, align 8, !tbaa !161
  br label %60

58:                                               ; preds = %._crit_edge.thread, %._crit_edge
  %.036.lcssa84 = phi ptr [ %2, %._crit_edge.thread ], [ %.1, %._crit_edge ]
  %59 = getelementptr inbounds nuw i8, ptr %.036.lcssa84, i64 32
  store i32 1, ptr %59, align 8, !tbaa !160
  br label %60

60:                                               ; preds = %58, %.critedge
  %61 = phi ptr [ %8, %58 ], [ %.pre81, %.critedge ]
  %62 = getelementptr inbounds nuw i8, ptr %61, i64 16
  tail call void asm sideeffect "\0A\09movl $$0, $0\0A", "=*m,~{memory},~{dirflag},~{fpsr},~{flags}"(ptr nonnull elementtype(i32) %62) #5, !srcloc !177
  br label %63

63:                                               ; preds = %1, %60
  ret i32 0
}